target datalayout = "e-m:e-p270:32:32-p271:32:32-p272:64:64-i64:64-i128:128-f80:128-n8:16:32:64-S128"
target triple = "x86_64-pc-linux-gnu"

%union.Value = type { ptr }
%struct.Table = type { ptr, i8, i8, i8, i8, i32, ptr, ptr, ptr, ptr }
%struct.TValue = type { %union.Value, i8 }
%union.Node = type { %struct.NodeKey }
%struct.NodeKey = type { %union.Value, i8, i8, i32, %union.Value }

@absentkey = internal constant { %union.Value, i8, [7 x i8] } { %union.Value zeroinitializer, i8 32, [7 x i8] zeroinitializer }, align 8

; Function Attrs: nounwind uwtable
define internal ptr @hashint(ptr noundef %0, i64 noundef %1) #0 {
  %3 = alloca ptr, align 8
  %4 = alloca ptr, align 8
  %5 = alloca i64, align 8
  %6 = alloca i64, align 8
  %7 = alloca i32, align 4
  store ptr %0, ptr %4, align 8, !tbaa !9
  store i64 %1, ptr %5, align 8, !tbaa !38
  call void @llvm.lifetime.start.p0(i64 8, ptr %6) #8
  %8 = load i64, ptr %5, align 8, !tbaa !38
  store i64 %8, ptr %6, align 8, !tbaa !38
  %9 = load i64, ptr %6, align 8, !tbaa !38
  %10 = icmp ule i64 %9, 2147483647
  br i1 %10, label %11, label %27

11:                                               ; preds = %2
  %12 = load ptr, ptr %4, align 8, !tbaa !9
  %13 = getelementptr inbounds nuw %struct.Table, ptr %12, i32 0, i32 7
  %14 = load ptr, ptr %13, align 8, !tbaa !28
  %15 = load i64, ptr %6, align 8, !tbaa !38
  %16 = trunc i64 %15 to i32
  %17 = load ptr, ptr %4, align 8, !tbaa !9
  %18 = getelementptr inbounds nuw %struct.Table, ptr %17, i32 0, i32 4
  %19 = load i8, ptr %18, align 1, !tbaa !27
  %20 = zext i8 %19 to i32
  %21 = shl i32 1, %20
  %22 = sub i32 %21, 1
  %23 = or i32 %22, 1
  %24 = srem i32 %16, %23
  %25 = sext i32 %24 to i64
  %26 = getelementptr inbounds %union.Node, ptr %14, i64 %25
  store ptr %26, ptr %3, align 8
  store i32 1, ptr %7, align 4
  br label %42

27:                                               ; preds = %2
  %28 = load ptr, ptr %4, align 8, !tbaa !9
  %29 = getelementptr inbounds nuw %struct.Table, ptr %28, i32 0, i32 7
  %30 = load ptr, ptr %29, align 8, !tbaa !28
  %31 = load i64, ptr %6, align 8, !tbaa !38
  %32 = load ptr, ptr %4, align 8, !tbaa !9
  %33 = getelementptr inbounds nuw %struct.Table, ptr %32, i32 0, i32 4
  %34 = load i8, ptr %33, align 1, !tbaa !27
  %35 = zext i8 %34 to i32
  %36 = shl i32 1, %35
  %37 = sub i32 %36, 1
  %38 = or i32 %37, 1
  %39 = zext i32 %38 to i64
  %40 = urem i64 %31, %39
  %41 = getelementptr inbounds nuw %union.Node, ptr %30, i64 %40
  store ptr %41, ptr %3, align 8
  store i32 1, ptr %7, align 4
  br label %42

42:                                               ; preds = %27, %11
  call void @llvm.lifetime.end.p0(i64 8, ptr %6) #8
  %43 = load ptr, ptr %3, align 8
  ret ptr %43
}

; Function Attrs: nounwind uwtable
define internal i32 @rawfinishnodeset(ptr noundef %0, ptr noundef %1) #0 {
  %3 = alloca i32, align 4
  %4 = alloca ptr, align 8
  %5 = alloca ptr, align 8
  %6 = alloca ptr, align 8
  %7 = alloca ptr, align 8
  store ptr %0, ptr %4, align 8, !tbaa !22
  store ptr %1, ptr %5, align 8, !tbaa !22
  %8 = load ptr, ptr %4, align 8, !tbaa !22
  %9 = getelementptr inbounds nuw %struct.TValue, ptr %8, i32 0, i32 1
  %10 = load i8, ptr %9, align 8, !tbaa !24
  %11 = zext i8 %10 to i32
  %12 = icmp eq i32 %11, 32
  br i1 %12, label %13, label %14

13:                                               ; preds = %2
  store i32 0, ptr %3, align 4
  br label %26

14:                                               ; preds = %2
  call void @llvm.lifetime.start.p0(i64 8, ptr %6) #8
  %15 = load ptr, ptr %4, align 8, !tbaa !22
  store ptr %15, ptr %6, align 8, !tbaa !22
  call void @llvm.lifetime.start.p0(i64 8, ptr %7) #8
  %16 = load ptr, ptr %5, align 8, !tbaa !22
  store ptr %16, ptr %7, align 8, !tbaa !22
  %17 = load ptr, ptr %6, align 8, !tbaa !22
  %18 = getelementptr inbounds nuw %struct.TValue, ptr %17, i32 0, i32 0
  %19 = load ptr, ptr %7, align 8, !tbaa !22
  %20 = getelementptr inbounds nuw %struct.TValue, ptr %19, i32 0, i32 0
  call void @llvm.memcpy.p0.p0.i64(ptr align 8 %18, ptr align 8 %20, i64 8, i1 false), !tbaa.struct !26
  %21 = load ptr, ptr %7, align 8, !tbaa !22
  %22 = getelementptr inbounds nuw %struct.TValue, ptr %21, i32 0, i32 1
  %23 = load i8, ptr %22, align 8, !tbaa !24
  %24 = load ptr, ptr %6, align 8, !tbaa !22
  %25 = getelementptr inbounds nuw %struct.TValue, ptr %24, i32 0, i32 1
  store i8 %23, ptr %25, align 8, !tbaa !24
  call void @llvm.lifetime.end.p0(i64 8, ptr %7) #8
  call void @llvm.lifetime.end.p0(i64 8, ptr %6) #8
  store i32 1, ptr %3, align 4
  br label %26

26:                                               ; preds = %14, %13
  %27 = load i32, ptr %3, align 4
  ret i32 %27
}

; Function Attrs: nounwind uwtable
define internal ptr @getintfromhash(ptr noundef %0, i64 noundef %1) #0 {
  %3 = alloca ptr, align 8
  %4 = alloca ptr, align 8
  %5 = alloca i64, align 8
  %6 = alloca ptr, align 8
  %7 = alloca i32, align 4
  %8 = alloca i32, align 4
  store ptr %0, ptr %4, align 8, !tbaa !9
  store i64 %1, ptr %5, align 8, !tbaa !38
  call void @llvm.lifetime.start.p0(i64 8, ptr %6) #8
  %9 = load ptr, ptr %4, align 8, !tbaa !9
  %10 = load i64, ptr %5, align 8, !tbaa !38
  %11 = call ptr @hashint(ptr noundef %9, i64 noundef %10)
  store ptr %11, ptr %6, align 8, !tbaa !29
  br label %12

12:                                               ; preds = %41, %2
  %13 = load ptr, ptr %6, align 8, !tbaa !29
  %14 = getelementptr inbounds nuw %struct.NodeKey, ptr %13, i32 0, i32 2
  %15 = load i8, ptr %14, align 1, !tbaa !21
  %16 = zext i8 %15 to i32
  %17 = icmp eq i32 %16, 3
  br i1 %17, label %18, label %26

18:                                               ; preds = %12
  %19 = load ptr, ptr %6, align 8, !tbaa !29
  %20 = getelementptr inbounds nuw %struct.NodeKey, ptr %19, i32 0, i32 4
  %21 = load i64, ptr %20, align 8, !tbaa !21
  %22 = load i64, ptr %5, align 8, !tbaa !38
  %23 = icmp eq i64 %21, %22
  br i1 %23, label %24, label %26

24:                                               ; preds = %18
  %25 = load ptr, ptr %6, align 8, !tbaa !29
  store ptr %25, ptr %3, align 8
  store i32 1, ptr %7, align 4
  br label %43

26:                                               ; preds = %18, %12
  call void @llvm.lifetime.start.p0(i64 4, ptr %8) #8
  %27 = load ptr, ptr %6, align 8, !tbaa !29
  %28 = getelementptr inbounds nuw %struct.NodeKey, ptr %27, i32 0, i32 3
  %29 = load i32, ptr %28, align 4, !tbaa !21
  store i32 %29, ptr %8, align 4, !tbaa !19
  %30 = load i32, ptr %8, align 4, !tbaa !19
  %31 = icmp eq i32 %30, 0
  br i1 %31, label %32, label %33

32:                                               ; preds = %26
  store i32 2, ptr %7, align 4
  br label %38

33:                                               ; preds = %26
  %34 = load i32, ptr %8, align 4, !tbaa !19
  %35 = load ptr, ptr %6, align 8, !tbaa !29
  %36 = sext i32 %34 to i64
  %37 = getelementptr inbounds %union.Node, ptr %35, i64 %36
  store ptr %37, ptr %6, align 8, !tbaa !29
  store i32 0, ptr %7, align 4
  br label %38

38:                                               ; preds = %33, %32
  call void @llvm.lifetime.end.p0(i64 4, ptr %8) #8
  %39 = load i32, ptr %7, align 4
  switch i32 %39, label %45 [
    i32 0, label %40
    i32 2, label %42
  ]

40:                                               ; preds = %38
  br label %41

41:                                               ; preds = %40
  br label %12

42:                                               ; preds = %38
  store ptr @absentkey, ptr %3, align 8
  store i32 1, ptr %7, align 4
  br label %43

43:                                               ; preds = %42, %24
  call void @llvm.lifetime.end.p0(i64 8, ptr %6) #8
  %44 = load ptr, ptr %3, align 8
  ret ptr %44

45:                                               ; preds = %38
  unreachable
}

; Function Attrs: nounwind uwtable
define internal i32 @checkrange(i64 noundef %0, i32 noundef %1) #0 {
  %3 = alloca i64, align 8
  %4 = alloca i32, align 4
  store i64 %0, ptr %3, align 8, !tbaa !38
  store i32 %1, ptr %4, align 4, !tbaa !19
  %5 = load i64, ptr %3, align 8, !tbaa !38
  %6 = sub i64 %5, 1
  %7 = load i32, ptr %4, align 4, !tbaa !19
  %8 = zext i32 %7 to i64
  %9 = icmp ult i64 %6, %8
  br i1 %9, label %10, label %13

10:                                               ; preds = %2
  %11 = load i64, ptr %3, align 8, !tbaa !38
  %12 = trunc i64 %11 to i32
  br label %14

13:                                               ; preds = %2
  br label %14

14:                                               ; preds = %13, %10
  %15 = phi i32 [ %12, %10 ], [ 0, %13 ]
  ret i32 %15
}

; Function Attrs: nounwind uwtable
define hidden void @luaH_setint(ptr noundef %0, ptr noundef %1, i64 noundef %2, ptr noundef %3) #0 {
  %5 = alloca ptr, align 8
  %6 = alloca ptr, align 8
  %7 = alloca i64, align 8
  %8 = alloca ptr, align 8
  %9 = alloca i32, align 4
  %10 = alloca i32, align 4
  %11 = alloca %struct.TValue, align 8
  %12 = alloca ptr, align 8
  store ptr %0, ptr %5, align 8, !tbaa !4
  store ptr %1, ptr %6, align 8, !tbaa !9
  store i64 %2, ptr %7, align 8, !tbaa !38
  store ptr %3, ptr %8, align 8, !tbaa !22
  call void @llvm.lifetime.start.p0(i64 4, ptr %9) #8
  %13 = load i64, ptr %7, align 8, !tbaa !38
  %14 = load ptr, ptr %6, align 8, !tbaa !9
  %15 = getelementptr inbounds nuw %struct.Table, ptr %14, i32 0, i32 5
  %16 = load i32, ptr %15, align 4, !tbaa !13
  %17 = call i32 @checkrange(i64 noundef %13, i32 noundef %16)
  store i32 %17, ptr %9, align 4, !tbaa !19
  %18 = load i32, ptr %9, align 4, !tbaa !19
  %19 = icmp ugt i32 %18, 0
  br i1 %19, label %20, label %43

20:                                               ; preds = %4
  %21 = load ptr, ptr %8, align 8, !tbaa !22
  %22 = getelementptr inbounds nuw %struct.TValue, ptr %21, i32 0, i32 1
  %23 = load i8, ptr %22, align 8, !tbaa !24
  %24 = load ptr, ptr %6, align 8, !tbaa !9
  %25 = getelementptr inbounds nuw %struct.Table, ptr %24, i32 0, i32 6
  %26 = load ptr, ptr %25, align 8, !tbaa !20
  %27 = getelementptr inbounds nuw i8, ptr %26, i64 4
  %28 = load i32, ptr %9, align 4, !tbaa !19
  %29 = sub i32 %28, 1
  %30 = zext i32 %29 to i64
  %31 = getelementptr inbounds nuw i8, ptr %27, i64 %30
  store i8 %23, ptr %31, align 1, !tbaa !21
  %32 = load ptr, ptr %6, align 8, !tbaa !9
  %33 = getelementptr inbounds nuw %struct.Table, ptr %32, i32 0, i32 6
  %34 = load ptr, ptr %33, align 8, !tbaa !20
  %35 = getelementptr inbounds %union.Value, ptr %34, i64 -1
  %36 = load i32, ptr %9, align 4, !tbaa !19
  %37 = sub i32 %36, 1
  %38 = zext i32 %37 to i64
  %39 = sub i64 0, %38
  %40 = getelementptr inbounds %union.Value, ptr %35, i64 %39
  %41 = load ptr, ptr %8, align 8, !tbaa !22
  %42 = getelementptr inbounds nuw %struct.TValue, ptr %41, i32 0, i32 0
  call void @llvm.memcpy.p0.p0.i64(ptr align 8 %40, ptr align 8 %42, i64 8, i1 false), !tbaa.struct !26
  br label %61

43:                                               ; preds = %4
  call void @llvm.lifetime.start.p0(i64 4, ptr %10) #8
  %44 = load ptr, ptr %6, align 8, !tbaa !9
  %45 = load i64, ptr %7, align 8, !tbaa !38
  %46 = call ptr @getintfromhash(ptr noundef %44, i64 noundef %45)
  %47 = load ptr, ptr %8, align 8, !tbaa !22
  %48 = call i32 @rawfinishnodeset(ptr noundef %46, ptr noundef %47)
  store i32 %48, ptr %10, align 4, !tbaa !19
  %49 = load i32, ptr %10, align 4, !tbaa !19
  %50 = icmp ne i32 %49, 0
  br i1 %50, label %60, label %51

51:                                               ; preds = %43
  call void @llvm.lifetime.start.p0(i64 16, ptr %11) #8
  call void @llvm.lifetime.start.p0(i64 8, ptr %12) #8
  store ptr %11, ptr %12, align 8, !tbaa !22
  %52 = load i64, ptr %7, align 8, !tbaa !38
  %53 = load ptr, ptr %12, align 8, !tbaa !22
  %54 = getelementptr inbounds nuw %struct.TValue, ptr %53, i32 0, i32 0
  store i64 %52, ptr %54, align 8, !tbaa !21
  %55 = load ptr, ptr %12, align 8, !tbaa !22
  %56 = getelementptr inbounds nuw %struct.TValue, ptr %55, i32 0, i32 1
  store i8 3, ptr %56, align 8, !tbaa !24
  call void @llvm.lifetime.end.p0(i64 8, ptr %12) #8
  %57 = load ptr, ptr %5, align 8, !tbaa !4
  %58 = load ptr, ptr %6, align 8, !tbaa !9
  %59 = load ptr, ptr %8, align 8, !tbaa !22
  call void @luaH_newkey(ptr noundef %57, ptr noundef %58, ptr noundef %11, ptr noundef %59)
  call void @llvm.lifetime.end.p0(i64 16, ptr %11) #8
  br label %60

60:                                               ; preds = %51, %43
  call void @llvm.lifetime.end.p0(i64 4, ptr %10) #8
  br label %61

61:                                               ; preds = %60, %20
  call void @llvm.lifetime.end.p0(i64 4, ptr %9) #8
  ret void
}