; Function Attrs: nounwind uwtable
define hidden void @luaH_setint(ptr noundef %0, ptr noundef %1, i64 noundef %2, ptr noundef readonly captures(none) %3) local_unnamed_addr #0 {
  %5 = alloca %struct.TValue, align 8
  %6 = getelementptr inbounds nuw i8, ptr %1, i64 12
  %7 = load i32, ptr %6, align 4, !tbaa !4
  %8 = add i64 %2, -1
  %9 = zext i32 %7 to i64
  %10 = icmp uge i64 %8, %9
  %11 = trunc i64 %2 to i32
  %.not22 = icmp eq i32 %11, 0
  %.not = or i1 %.not22, %10
  br i1 %.not, label %26, label %12

12:                                               ; preds = %4
  %13 = getelementptr inbounds nuw i8, ptr %3, i64 8
  %14 = load i8, ptr %13, align 8, !tbaa !14
  %15 = getelementptr inbounds nuw i8, ptr %1, i64 16
  %16 = load ptr, ptr %15, align 8, !tbaa !19
  %17 = getelementptr inbounds nuw i8, ptr %16, i64 4
  %18 = add nuw nsw i64 %2, 4294967295
  %19 = and i64 %18, 4294967295
  %20 = getelementptr inbounds nuw i8, ptr %17, i64 %19
  store i8 %14, ptr %20, align 1, !tbaa !16
  %21 = load ptr, ptr %15, align 8, !tbaa !19
  %22 = getelementptr inbounds i8, ptr %21, i64 -8
  %23 = sub nsw i64 0, %19
  %24 = getelementptr inbounds %union.Value, ptr %22, i64 %23
  %25 = load i64, ptr %3, align 8, !tbaa !16
  store i64 %25, ptr %24, align 8, !tbaa !16
  br label %64

26:                                               ; preds = %4
  %27 = icmp ult i64 %2, 2147483648
  %28 = getelementptr inbounds nuw i8, ptr %1, i64 24
  %29 = load ptr, ptr %28, align 8, !tbaa !18
  %30 = getelementptr inbounds nuw i8, ptr %1, i64 11
  %31 = load i8, ptr %30, align 1, !tbaa !20
  %32 = zext nneg i8 %31 to i32
  %notmask9.i.i = shl nsw i32 -1, %32
  %33 = xor i32 %notmask9.i.i, -1
  %34 = or i32 %33, 1
  br i1 %27, label %35, label %38

35:                                               ; preds = %26
  %36 = urem i32 %11, %34
  %37 = zext nneg i32 %36 to i64
  br label %hashint.exit.i

38:                                               ; preds = %26
  %39 = zext nneg i32 %34 to i64
  %40 = urem i64 %2, %39
  br label %hashint.exit.i

hashint.exit.i:                                   ; preds = %38, %35
  %.sink.i.i = phi i64 [ %40, %38 ], [ %37, %35 ]
  %41 = getelementptr inbounds nuw %union.Node, ptr %29, i64 %.sink.i.i
  br label %42

42:                                               ; preds = %50, %hashint.exit.i
  %.012.i = phi ptr [ %41, %hashint.exit.i ], [ %55, %50 ]
  %43 = getelementptr inbounds nuw i8, ptr %.012.i, i64 9
  %44 = load i8, ptr %43, align 1, !tbaa !16
  %45 = icmp eq i8 %44, 3
  br i1 %45, label %46, label %50

46:                                               ; preds = %42
  %47 = getelementptr inbounds nuw i8, ptr %.012.i, i64 16
  %48 = load i64, ptr %47, align 8, !tbaa !16
  %49 = icmp eq i64 %48, %2
  br i1 %49, label %getintfromhash.exit, label %50

50:                                               ; preds = %46, %42
  %51 = getelementptr inbounds nuw i8, ptr %.012.i, i64 12
  %52 = load i32, ptr %51, align 4, !tbaa !16
  %53 = icmp eq i32 %52, 0
  %54 = sext i32 %52 to i64
  %55 = getelementptr inbounds %union.Node, ptr %.012.i, i64 %54
  br i1 %53, label %getintfromhash.exit, label %42

getintfromhash.exit:                              ; preds = %46, %50
  %.0.i = phi ptr [ %.012.i, %46 ], [ @absentkey, %50 ]
  %56 = getelementptr inbounds nuw i8, ptr %.0.i, i64 8
  %57 = load i8, ptr %56, align 8, !tbaa !14
  %58 = icmp eq i8 %57, 32
  br i1 %58, label %62, label %rawfinishnodeset.exit

rawfinishnodeset.exit:                            ; preds = %getintfromhash.exit
  %59 = load i64, ptr %3, align 8, !tbaa !16
  store i64 %59, ptr %.0.i, align 8, !tbaa !16
  %60 = getelementptr inbounds nuw i8, ptr %3, i64 8
  %61 = load i8, ptr %60, align 8, !tbaa !14
  store i8 %61, ptr %56, align 8, !tbaa !14
  br label %64

62:                                               ; preds = %getintfromhash.exit
  call void @llvm.lifetime.start.p0(i64 16, ptr nonnull %5) #13
  store i64 %2, ptr %5, align 8, !tbaa !16
  %63 = getelementptr inbounds nuw i8, ptr %5, i64 8
  store i8 3, ptr %63, align 8, !tbaa !14
  call fastcc void @luaH_newkey(ptr noundef %0, ptr noundef %1, ptr noundef nonnull %5, ptr noundef %3)
  call void @llvm.lifetime.end.p0(i64 16, ptr nonnull %5) #13
  br label %64

64:                                               ; preds = %rawfinishnodeset.exit, %62, %12
  ret void
}